; Function Attrs: mustprogress nounwind uwtable
define dso_local noundef zeroext i1 @_ZN4node13SocketAddress3NewEPKcjPS0_(ptr noundef %host, i32 noundef %port, ptr noundef %addr) local_unnamed_addr #3 align 2 {
entry:
  %address_.i.i = getelementptr inbounds i8, ptr %addr, i64 8
  %call.i.i = tail call i32 @uv_ip4_addr(ptr noundef %host, i32 noundef %port, ptr noundef nonnull %address_.i.i) #21
  %retval.0.i.i = icmp eq i32 %call.i.i, 0
  br i1 %retval.0.i.i, label %lor.end, label %lor.rhs

lor.rhs:                                          ; preds = %entry
  %call2.i.i = tail call i32 @uv_ip6_addr(ptr noundef %host, i32 noundef %port, ptr noundef nonnull %address_.i.i) #21
  %retval.0.i.i5 = icmp eq i32 %call2.i.i, 0
  br label %lor.end

lor.end:                                          ; preds = %lor.rhs, %entry
  %0 = phi i1 [ true, %entry ], [ %retval.0.i.i5, %lor.rhs ]
  ret i1 %0
}